Archive member included because of file (symbol)

c:/nxp/lpcxpresso_5.2.4_2122/lpcxpresso/tools/bin/../lib/gcc/arm-none-eabi/4.6.2/../../../../arm-none-eabi/lib/armv7-m\libcr_c.a(__weak__main.o)
                              ./TPL2-B-Drivers/cr_startup_lpc176x.o (__main)

Allocating common symbols
Common symbol       size              file

Buff_Display        0x8               ./TPL2-B-Aplicacion/TPL2-B-Aplicacion.o

Discarded input sections

 .text          0x00000000        0x0 ./TPL2-B-Drivers/FW_Expansion_2.o
 .data          0x00000000        0x0 ./TPL2-B-Drivers/FW_Expansion_2.o
 .bss           0x00000000        0x0 ./TPL2-B-Drivers/FW_Expansion_2.o
 .text          0x00000000        0x0 ./TPL2-B-Drivers/Oscilador.o
 .data          0x00000000        0x0 ./TPL2-B-Drivers/Oscilador.o
 .bss           0x00000000        0x0 ./TPL2-B-Drivers/Oscilador.o
 .text          0x00000000        0x0 ./TPL2-B-Drivers/TPL2-B-FW-CONFIG.o
 .data          0x00000000        0x0 ./TPL2-B-Drivers/TPL2-B-FW-CONFIG.o
 .bss           0x00000000        0x0 ./TPL2-B-Drivers/TPL2-B-FW-CONFIG.o
 .text.SetPINMODE
                0x00000000       0xa0 ./TPL2-B-Drivers/TPL2-B-FW-CONFIG.o
 .text          0x00000000        0x0 ./TPL2-B-Drivers/TPL2-B-FW-GPIO.o
 .data          0x00000000        0x0 ./TPL2-B-Drivers/TPL2-B-FW-GPIO.o
 .bss           0x00000000        0x0 ./TPL2-B-Drivers/TPL2-B-FW-GPIO.o
 .text.GetPIN   0x00000000       0x54 ./TPL2-B-Drivers/TPL2-B-FW-GPIO.o
 .text          0x00000000        0x0 ./TPL2-B-Drivers/TPL2-B-FW-INIC.o
 .data          0x00000000        0x0 ./TPL2-B-Drivers/TPL2-B-FW-INIC.o
 .bss           0x00000000        0x0 ./TPL2-B-Drivers/TPL2-B-FW-INIC.o
 .text          0x00000000        0x0 ./TPL2-B-Drivers/cr_startup_lpc176x.o
 .data          0x00000000        0x0 ./TPL2-B-Drivers/cr_startup_lpc176x.o
 .bss           0x00000000        0x0 ./TPL2-B-Drivers/cr_startup_lpc176x.o
 .text          0x00000000        0x0 ./TPL2-B-Drivers/crp.o
 .data          0x00000000        0x0 ./TPL2-B-Drivers/crp.o
 .bss           0x00000000        0x0 ./TPL2-B-Drivers/crp.o
 .crp           0x00000000        0x4 ./TPL2-B-Drivers/crp.o
 .text          0x00000000        0x0 ./TPL2-B-Aplicacion/TPL2-B-Aplicacion.o
 .data          0x00000000        0x0 ./TPL2-B-Aplicacion/TPL2-B-Aplicacion.o
 .bss           0x00000000        0x0 ./TPL2-B-Aplicacion/TPL2-B-Aplicacion.o
 .text          0x00000000        0x0 ./Primitivas/Display_7_seg.o
 .data          0x00000000        0x0 ./Primitivas/Display_7_seg.o
 .bss           0x00000000        0x0 ./Primitivas/Display_7_seg.o
 .text          0x00000000        0x0 ./Primitivas/Display_7seg_bcd.o
 .data          0x00000000        0x0 ./Primitivas/Display_7seg_bcd.o
 .bss           0x00000000        0x0 ./Primitivas/Display_7seg_bcd.o
 .text.Display_BCD
                0x00000000       0xe0 ./Primitivas/Display_7seg_bcd.o
 .text          0x00000000        0x0 c:/nxp/lpcxpresso_5.2.4_2122/lpcxpresso/tools/bin/../lib/gcc/arm-none-eabi/4.6.2/../../../../arm-none-eabi/lib/armv7-m\libcr_c.a(__weak__main.o)
 .data          0x00000000        0x0 c:/nxp/lpcxpresso_5.2.4_2122/lpcxpresso/tools/bin/../lib/gcc/arm-none-eabi/4.6.2/../../../../arm-none-eabi/lib/armv7-m\libcr_c.a(__weak__main.o)
 .bss           0x00000000        0x0 c:/nxp/lpcxpresso_5.2.4_2122/lpcxpresso/tools/bin/../lib/gcc/arm-none-eabi/4.6.2/../../../../arm-none-eabi/lib/armv7-m\libcr_c.a(__weak__main.o)

Memory Configuration

Name             Origin             Length             Attributes
MFlash512        0x00000000         0x00080000         xr
RamLoc32         0x10000000         0x00008000         xrw
RamAHB32         0x2007c000         0x00008000         xrw
*default*        0x00000000         0xffffffff

Linker script and memory map

LOAD ./TPL2-B-Drivers/FW_Expansion_2.o
LOAD ./TPL2-B-Drivers/Oscilador.o
LOAD ./TPL2-B-Drivers/TPL2-B-FW-CONFIG.o
LOAD ./TPL2-B-Drivers/TPL2-B-FW-GPIO.o
LOAD ./TPL2-B-Drivers/TPL2-B-FW-INIC.o
LOAD ./TPL2-B-Drivers/cr_startup_lpc176x.o
LOAD ./TPL2-B-Drivers/crp.o
LOAD ./TPL2-B-Aplicacion/TPL2-B-Aplicacion.o
LOAD ./Primitivas/Display_7_seg.o
LOAD ./Primitivas/Display_7seg_bcd.o
START GROUP
LOAD c:/nxp/lpcxpresso_5.2.4_2122/lpcxpresso/tools/bin/../lib/gcc/arm-none-eabi/4.6.2/../../../../arm-none-eabi/lib/armv7-m\libcr_c.a
LOAD c:/nxp/lpcxpresso_5.2.4_2122/lpcxpresso/tools/bin/../lib/gcc/arm-none-eabi/4.6.2/armv7-m\libcr_eabihelpers.a
END GROUP
                0x00080000                __top_MFlash512 = 0x80000
                0x10008000                __top_RamLoc32 = 0x10008000
                0x20084000                __top_RamAHB32 = 0x20084000

.text           0x00000000      0xafc
 FILL mask 0xff
                0x00000000                __vectors_start__ = ABSOLUTE (.)
 *(.isr_vector)
 .isr_vector    0x00000000       0xcc ./TPL2-B-Drivers/cr_startup_lpc176x.o
                0x00000000                g_pfnVectors
                0x000000cc                . = ALIGN (0x4)
                0x000000cc                __section_table_start = .
                0x000000cc                __data_section_table = .
                0x000000cc        0x4 LONG 0xafc LOADADDR (.data)
                0x000000d0        0x4 LONG 0x10000000 ADDR (.data)
                0x000000d4        0x4 LONG 0xc SIZEOF (.data)
                0x000000d8        0x4 LONG 0xafc LOADADDR (.data_RAM2)
                0x000000dc        0x4 LONG 0x2007c000 ADDR (.data_RAM2)
                0x000000e0        0x4 LONG 0x0 SIZEOF (.data_RAM2)
                0x000000e4                __data_section_table_end = .
                0x000000e4                __bss_section_table = .
                0x000000e4        0x4 LONG 0x1000000c ADDR (.bss)
                0x000000e8        0x4 LONG 0xc SIZEOF (.bss)
                0x000000ec        0x4 LONG 0x2007c000 ADDR (.bss_RAM2)
                0x000000f0        0x4 LONG 0x0 SIZEOF (.bss_RAM2)
                0x000000f4                __bss_section_table_end = .
                0x000000f4                __section_table_end = .
 *(.after_vectors*)
 .after_vectors
                0x000000f4      0x168 ./TPL2-B-Drivers/cr_startup_lpc176x.o
                0x000000f4                data_init
                0x00000144                bss_init
                0x00000184                ResetISR
                0x00000214                NMI_Handler
                0x0000021c                HardFault_Handler
                0x00000224                MemManage_Handler
                0x0000022c                BusFault_Handler
                0x00000234                UsageFault_Handler
                0x0000023c                SVC_Handler
                0x00000244                DebugMon_Handler
                0x0000024c                PendSV_Handler
                0x00000254                UART1_IRQHandler
                0x00000254                EINT3_IRQHandler
                0x00000254                CANActivity_IRQHandler
                0x00000254                TIMER3_IRQHandler
                0x00000254                UART0_IRQHandler
                0x00000254                USBActivity_IRQHandler
                0x00000254                EINT2_IRQHandler
                0x00000254                IntDefaultHandler
                0x00000254                PLL0_IRQHandler
                0x00000254                CAN_IRQHandler
                0x00000254                I2C0_IRQHandler
                0x00000254                SSP0_IRQHandler
                0x00000254                I2C1_IRQHandler
                0x00000254                I2C2_IRQHandler
                0x00000254                RTC_IRQHandler
                0x00000254                TIMER0_IRQHandler
                0x00000254                SPI_IRQHandler
                0x00000254                RIT_IRQHandler
                0x00000254                EINT1_IRQHandler
                0x00000254                TIMER1_IRQHandler
                0x00000254                UART2_IRQHandler
                0x00000254                ADC_IRQHandler
                0x00000254                SSP1_IRQHandler
                0x00000254                USB_IRQHandler
                0x00000254                BOD_IRQHandler
                0x00000254                PWM1_IRQHandler
                0x00000254                WDT_IRQHandler
                0x00000254                I2S_IRQHandler
                0x00000254                QEI_IRQHandler
                0x00000254                EINT0_IRQHandler
                0x00000254                PLL1_IRQHandler
                0x00000254                DMA_IRQHandler
                0x00000254                TIMER2_IRQHandler
                0x00000254                UART3_IRQHandler
                0x00000254                MCPWM_IRQHandler
                0x00000254                ENET_IRQHandler
 *(.text*)
 .text.Barrido_Display
                0x0000025c      0x22c ./TPL2-B-Drivers/FW_Expansion_2.o
                0x0000025c                Barrido_Display
 .text.InitPLL  0x00000488      0x1f0 ./TPL2-B-Drivers/Oscilador.o
                0x00000488                InitPLL
 .text.SetPINSEL
                0x00000678       0x98 ./TPL2-B-Drivers/TPL2-B-FW-CONFIG.o
                0x00000678                SetPINSEL
 .text.SetDIR   0x00000710       0x80 ./TPL2-B-Drivers/TPL2-B-FW-GPIO.o
                0x00000710                SetDIR
 .text.SetPIN   0x00000790       0x84 ./TPL2-B-Drivers/TPL2-B-FW-GPIO.o
                0x00000790                SetPIN
 .text.Inicializar
                0x00000814       0x18 ./TPL2-B-Drivers/TPL2-B-FW-INIC.o
                0x00000814                Inicializar
 .text.InitGPIOs
                0x0000082c       0x28 ./TPL2-B-Drivers/TPL2-B-FW-INIC.o
                0x0000082c                InitGPIOs
 .text.InicSysTick
                0x00000854       0x4c ./TPL2-B-Drivers/TPL2-B-FW-INIC.o
                0x00000854                InicSysTick
 .text.InitExpansion
                0x000008a0      0x168 ./TPL2-B-Drivers/TPL2-B-FW-INIC.o
                0x000008a0                InitExpansion
 .text.main     0x00000a08       0x14 ./TPL2-B-Aplicacion/TPL2-B-Aplicacion.o
                0x00000a08                main
 .text.SysTick_Handler
                0x00000a1c        0xc ./TPL2-B-Aplicacion/TPL2-B-Aplicacion.o
                0x00000a1c                SysTick_Handler
 .text.Display_7seg
                0x00000a28       0xd0 ./Primitivas/Display_7_seg.o
                0x00000a28                Display_7seg
 .text.__weak_main
                0x00000af8        0x4 c:/nxp/lpcxpresso_5.2.4_2122/lpcxpresso/tools/bin/../lib/gcc/arm-none-eabi/4.6.2/../../../../arm-none-eabi/lib/armv7-m\libcr_c.a(__weak__main.o)
                0x00000af8                __weak_main
                0x00000af8                __main
 *(.rodata .rodata.*)
                0x00000afc                . = ALIGN (0x4)

.glue_7         0x00000afc        0x0
 .glue_7        0x00000000        0x0 linker stubs

.glue_7t        0x00000afc        0x0
 .glue_7t       0x00000000        0x0 linker stubs

.vfp11_veneer   0x00000afc        0x0
 .vfp11_veneer  0x00000000        0x0 linker stubs

.v4_bx          0x00000afc        0x0
 .v4_bx         0x00000000        0x0 linker stubs

.ARM.extab
 *(.ARM.extab* .gnu.linkonce.armextab.*)
                0x00000afc                __exidx_start = .

.ARM.exidx
 *(.ARM.exidx* .gnu.linkonce.armexidx.*)
                0x00000afc                __exidx_end = .
                0x00000afc                _etext = .

.data_RAM2      0x2007c000        0x0 load address 0x00000afc
 FILL mask 0xff
 *(.data.$RAM2*)
 *(.data.$RamAHB32*)
                0x2007c000                . = ALIGN (0x4)

.uninit_RESERVED
                0x10000000        0x0
 *(.bss.$RESERVED*)
                0x10000000                . = ALIGN (0x4)
                0x10000000                _end_uninit_RESERVED = .

.data           0x10000000        0xc load address 0x00000afc
 FILL mask 0xff
                0x10000000                _data = .
 *(vtable)
 *(.data*)
 .data.Tabla_Digitos_BCD_7seg
                0x10000000        0xc ./Primitivas/Display_7_seg.o
                0x10000000                Tabla_Digitos_BCD_7seg
                0x1000000c                . = ALIGN (0x4)
                0x1000000c                _edata = .

.bss_RAM2       0x2007c000        0x0
 *(.bss.$RAM2*)
 *(.bss.$RamAHB32*)
                0x2007c000                . = ALIGN (0x4)

.bss            0x1000000c        0xc
                0x1000000c                _bss = .
 *(.bss*)
 .bss.digito.3525
                0x1000000c        0x1 ./TPL2-B-Drivers/FW_Expansion_2.o
 *(COMMON)
 *fill*         0x1000000d        0x3 00
 COMMON         0x10000010        0x8 ./TPL2-B-Aplicacion/TPL2-B-Aplicacion.o
                0x10000010                Buff_Display
                0x10000018                . = ALIGN (0x4)
                0x10000018                _ebss = .
                0x10000018                PROVIDE (end, .)

.noinit_RAM2    0x2007c000        0x0
 *(.noinit.$RAM2*)
 *(.noinit.$RamAHB32*)
                0x2007c000                . = ALIGN (0x4)

.noinit         0x10000018        0x0
                0x10000018                _noinit = .
 *(.noinit*)
                0x10000018                . = ALIGN (0x4)
                0x10000018                _end_noinit = .
                0x10000018                PROVIDE (_pvHeapStart, .)
                0x10008000                PROVIDE (_vStackTop, (__top_RamLoc32 - 0x0))
OUTPUT(TPL2-B.axf elf32-littlearm)

.debug_info     0x00000000      0x96c
 .debug_info    0x00000000       0xac ./TPL2-B-Drivers/FW_Expansion_2.o
 .debug_info    0x000000ac       0x73 ./TPL2-B-Drivers/Oscilador.o
 .debug_info    0x0000011f       0xed ./TPL2-B-Drivers/TPL2-B-FW-CONFIG.o
 .debug_info    0x0000020c      0x135 ./TPL2-B-Drivers/TPL2-B-FW-GPIO.o
 .debug_info    0x00000341       0xb2 ./TPL2-B-Drivers/TPL2-B-FW-INIC.o
 .debug_info    0x000003f3      0x2a3 ./TPL2-B-Drivers/cr_startup_lpc176x.o
 .debug_info    0x00000696       0x48 ./TPL2-B-Drivers/crp.o
 .debug_info    0x000006de       0xa5 ./TPL2-B-Aplicacion/TPL2-B-Aplicacion.o
 .debug_info    0x00000783      0x10f ./Primitivas/Display_7_seg.o
 .debug_info    0x00000892       0xda ./Primitivas/Display_7seg_bcd.o

.debug_abbrev   0x00000000      0x502
 .debug_abbrev  0x00000000       0x84 ./TPL2-B-Drivers/FW_Expansion_2.o
 .debug_abbrev  0x00000084       0x4c ./TPL2-B-Drivers/Oscilador.o
 .debug_abbrev  0x000000d0       0x81 ./TPL2-B-Drivers/TPL2-B-FW-CONFIG.o
 .debug_abbrev  0x00000151       0x83 ./TPL2-B-Drivers/TPL2-B-FW-GPIO.o
 .debug_abbrev  0x000001d4       0x4c ./TPL2-B-Drivers/TPL2-B-FW-INIC.o
 .debug_abbrev  0x00000220       0xed ./TPL2-B-Drivers/cr_startup_lpc176x.o
 .debug_abbrev  0x0000030d       0x39 ./TPL2-B-Drivers/crp.o
 .debug_abbrev  0x00000346       0x8a ./TPL2-B-Aplicacion/TPL2-B-Aplicacion.o
 .debug_abbrev  0x000003d0       0xa5 ./Primitivas/Display_7_seg.o
 .debug_abbrev  0x00000475       0x8d ./Primitivas/Display_7seg_bcd.o

.debug_loc      0x00000000      0x528
 .debug_loc     0x00000000       0x38 ./TPL2-B-Drivers/FW_Expansion_2.o
 .debug_loc     0x00000038       0x2c ./TPL2-B-Drivers/Oscilador.o
 .debug_loc     0x00000064       0x70 ./TPL2-B-Drivers/TPL2-B-FW-CONFIG.o
 .debug_loc     0x000000d4       0xa8 ./TPL2-B-Drivers/TPL2-B-FW-GPIO.o
 .debug_loc     0x0000017c       0xb0 ./TPL2-B-Drivers/TPL2-B-FW-INIC.o
 .debug_loc     0x0000022c      0x234 ./TPL2-B-Drivers/cr_startup_lpc176x.o
 .debug_loc     0x00000460       0x58 ./TPL2-B-Aplicacion/TPL2-B-Aplicacion.o
 .debug_loc     0x000004b8       0x38 ./Primitivas/Display_7_seg.o
 .debug_loc     0x000004f0       0x38 ./Primitivas/Display_7seg_bcd.o

.debug_aranges  0x00000000      0x1b0
 .debug_aranges
                0x00000000       0x20 ./TPL2-B-Drivers/FW_Expansion_2.o
 .debug_aranges
                0x00000020       0x20 ./TPL2-B-Drivers/Oscilador.o
 .debug_aranges
                0x00000040       0x28 ./TPL2-B-Drivers/TPL2-B-FW-CONFIG.o
 .debug_aranges
                0x00000068       0x30 ./TPL2-B-Drivers/TPL2-B-FW-GPIO.o
 .debug_aranges
                0x00000098       0x38 ./TPL2-B-Drivers/TPL2-B-FW-INIC.o
 .debug_aranges
                0x000000d0       0x78 ./TPL2-B-Drivers/cr_startup_lpc176x.o
 .debug_aranges
                0x00000148       0x28 ./TPL2-B-Aplicacion/TPL2-B-Aplicacion.o
 .debug_aranges
                0x00000170       0x20 ./Primitivas/Display_7_seg.o
 .debug_aranges
                0x00000190       0x20 ./Primitivas/Display_7seg_bcd.o

.debug_ranges   0x00000000      0x120
 .debug_ranges  0x00000000       0x10 ./TPL2-B-Drivers/FW_Expansion_2.o
 .debug_ranges  0x00000010       0x10 ./TPL2-B-Drivers/Oscilador.o
 .debug_ranges  0x00000020       0x18 ./TPL2-B-Drivers/TPL2-B-FW-CONFIG.o
 .debug_ranges  0x00000038       0x20 ./TPL2-B-Drivers/TPL2-B-FW-GPIO.o
 .debug_ranges  0x00000058       0x28 ./TPL2-B-Drivers/TPL2-B-FW-INIC.o
 .debug_ranges  0x00000080       0x68 ./TPL2-B-Drivers/cr_startup_lpc176x.o
 .debug_ranges  0x000000e8       0x18 ./TPL2-B-Aplicacion/TPL2-B-Aplicacion.o
 .debug_ranges  0x00000100       0x10 ./Primitivas/Display_7_seg.o
 .debug_ranges  0x00000110       0x10 ./Primitivas/Display_7seg_bcd.o

.debug_line     0x00000000      0xa9c
 .debug_line    0x00000000       0xfe ./TPL2-B-Drivers/FW_Expansion_2.o
 .debug_line    0x000000fe      0x124 ./TPL2-B-Drivers/Oscilador.o
 .debug_line    0x00000222      0x105 ./TPL2-B-Drivers/TPL2-B-FW-CONFIG.o
 .debug_line    0x00000327      0x114 ./TPL2-B-Drivers/TPL2-B-FW-GPIO.o
 .debug_line    0x0000043b      0x136 ./TPL2-B-Drivers/TPL2-B-FW-INIC.o
 .debug_line    0x00000571      0x172 ./TPL2-B-Drivers/cr_startup_lpc176x.o
 .debug_line    0x000006e3       0xb8 ./TPL2-B-Drivers/crp.o
 .debug_line    0x0000079b      0x10a ./TPL2-B-Aplicacion/TPL2-B-Aplicacion.o
 .debug_line    0x000008a5      0x10e ./Primitivas/Display_7_seg.o
 .debug_line    0x000009b3       0xe9 ./Primitivas/Display_7seg_bcd.o

.debug_macinfo  0x00000000    0x1cfd1
 .debug_macinfo
                0x00000000     0x30d7 ./TPL2-B-Drivers/FW_Expansion_2.o
 .debug_macinfo
                0x000030d7     0x30d7 ./TPL2-B-Drivers/Oscilador.o
 .debug_macinfo
                0x000061ae     0x30d7 ./TPL2-B-Drivers/TPL2-B-FW-CONFIG.o
 .debug_macinfo
                0x00009285     0x30d7 ./TPL2-B-Drivers/TPL2-B-FW-GPIO.o
 .debug_macinfo
                0x0000c35c     0x30d7 ./TPL2-B-Drivers/TPL2-B-FW-INIC.o
 .debug_macinfo
                0x0000f433     0x3123 ./TPL2-B-Drivers/cr_startup_lpc176x.o
 .debug_macinfo
                0x00012556     0x236a ./TPL2-B-Drivers/crp.o
 .debug_macinfo
                0x000148c0     0x30db ./TPL2-B-Aplicacion/TPL2-B-Aplicacion.o
 .debug_macinfo
                0x0001799b     0x30db ./Primitivas/Display_7_seg.o
 .debug_macinfo
                0x0001aa76     0x255b ./Primitivas/Display_7seg_bcd.o

.debug_str      0x00000000      0x483
 .debug_str     0x00000000      0x114 ./TPL2-B-Drivers/FW_Expansion_2.o
                                0x121 (size before relaxing)
 .debug_str     0x00000114       0x3a ./TPL2-B-Drivers/Oscilador.o
                                0x10c (size before relaxing)
 .debug_str     0x0000014e       0x53 ./TPL2-B-Drivers/TPL2-B-FW-CONFIG.o
                                0x141 (size before relaxing)
 .debug_str     0x000001a1       0x49 ./TPL2-B-Drivers/TPL2-B-FW-GPIO.o
                                0x13e (size before relaxing)
 .debug_str     0x000001ea       0x53 ./TPL2-B-Drivers/TPL2-B-FW-INIC.o
                                0x139 (size before relaxing)
 .debug_str     0x0000023d      0x172 ./TPL2-B-Drivers/cr_startup_lpc176x.o
                                0x24a (size before relaxing)
 .debug_str     0x000003af       0x21 ./TPL2-B-Drivers/crp.o
                                 0xd2 (size before relaxing)
 .debug_str     0x000003d0       0x3e ./TPL2-B-Aplicacion/TPL2-B-Aplicacion.o
                                0x125 (size before relaxing)
 .debug_str     0x0000040e       0x48 ./Primitivas/Display_7_seg.o
                                0x143 (size before relaxing)
 .debug_str     0x00000456       0x2d ./Primitivas/Display_7seg_bcd.o
                                0x119 (size before relaxing)

.comment        0x00000000       0xe0
 .comment       0x00000000       0x70 ./TPL2-B-Drivers/FW_Expansion_2.o
                                 0x71 (size before relaxing)
 .comment       0x00000000       0x71 ./TPL2-B-Drivers/Oscilador.o
 .comment       0x00000000       0x71 ./TPL2-B-Drivers/TPL2-B-FW-CONFIG.o
 .comment       0x00000000       0x71 ./TPL2-B-Drivers/TPL2-B-FW-GPIO.o
 .comment       0x00000000       0x71 ./TPL2-B-Drivers/TPL2-B-FW-INIC.o
 .comment       0x00000000       0x71 ./TPL2-B-Drivers/cr_startup_lpc176x.o
 .comment       0x00000000       0x71 ./TPL2-B-Drivers/crp.o
 .comment       0x00000000       0x71 ./TPL2-B-Aplicacion/TPL2-B-Aplicacion.o
 .comment       0x00000000       0x71 ./Primitivas/Display_7_seg.o
 .comment       0x00000000       0x71 ./Primitivas/Display_7seg_bcd.o
 .comment       0x00000070       0x70 c:/nxp/lpcxpresso_5.2.4_2122/lpcxpresso/tools/bin/../lib/gcc/arm-none-eabi/4.6.2/../../../../arm-none-eabi/lib/armv7-m\libcr_c.a(__weak__main.o)
                                 0x71 (size before relaxing)

.ARM.attributes
                0x00000000       0x33
 .ARM.attributes
                0x00000000       0x33 ./TPL2-B-Drivers/FW_Expansion_2.o
 .ARM.attributes
                0x00000033       0x33 ./TPL2-B-Drivers/Oscilador.o
 .ARM.attributes
                0x00000066       0x33 ./TPL2-B-Drivers/TPL2-B-FW-CONFIG.o
 .ARM.attributes
                0x00000099       0x33 ./TPL2-B-Drivers/TPL2-B-FW-GPIO.o
 .ARM.attributes
                0x000000cc       0x33 ./TPL2-B-Drivers/TPL2-B-FW-INIC.o
 .ARM.attributes
                0x000000ff       0x33 ./TPL2-B-Drivers/cr_startup_lpc176x.o
 .ARM.attributes
                0x00000132       0x33 ./TPL2-B-Drivers/crp.o
 .ARM.attributes
                0x00000165       0x33 ./TPL2-B-Aplicacion/TPL2-B-Aplicacion.o
 .ARM.attributes
                0x00000198       0x33 ./Primitivas/Display_7_seg.o
 .ARM.attributes
                0x000001cb       0x33 ./Primitivas/Display_7seg_bcd.o
 .ARM.attributes
                0x000001fe       0x33 c:/nxp/lpcxpresso_5.2.4_2122/lpcxpresso/tools/bin/../lib/gcc/arm-none-eabi/4.6.2/../../../../arm-none-eabi/lib/armv7-m\libcr_c.a(__weak__main.o)

.debug_frame    0x00000000      0x360
 .debug_frame   0x00000000       0x30 ./TPL2-B-Drivers/FW_Expansion_2.o
 .debug_frame   0x00000030       0x28 ./TPL2-B-Drivers/Oscilador.o
 .debug_frame   0x00000058       0x48 ./TPL2-B-Drivers/TPL2-B-FW-CONFIG.o
 .debug_frame   0x000000a0       0x64 ./TPL2-B-Drivers/TPL2-B-FW-GPIO.o
 .debug_frame   0x00000104       0x7c ./TPL2-B-Drivers/TPL2-B-FW-INIC.o
 .debug_frame   0x00000180      0x140 ./TPL2-B-Drivers/cr_startup_lpc176x.o
 .debug_frame   0x000002c0       0x48 ./TPL2-B-Aplicacion/TPL2-B-Aplicacion.o
 .debug_frame   0x00000308       0x2c ./Primitivas/Display_7_seg.o
 .debug_frame   0x00000334       0x2c ./Primitivas/Display_7seg_bcd.o
